target datalayout = "e-m:e-p270:32:32-p271:32:32-p272:64:64-i64:64-i128:128-f80:128-n8:16:32:64-S128"
target triple = "x86_64-pc-linux-gnu"

%struct.dt_pthread_mutex_t = type { %union.pthread_mutex_t }
%union.pthread_mutex_t = type { %struct.__pthread_mutex_s }
%struct.__pthread_mutex_s = type { i32, i32, i32, i32, i32, i16, i16, %struct.__pthread_internal_list }
%struct.__pthread_internal_list = type { ptr, ptr }
%struct.dt_camctl_t = type { %struct.dt_pthread_mutex_t, %struct.dt_pthread_mutex_t, i64, ptr, ptr, ptr, ptr, ptr, ptr, ptr, ptr, i32, i32, i32 }
%struct._GList = type { ptr, ptr, ptr }
%struct.dt_camctl_listener_t = type { ptr, ptr, ptr, ptr, ptr, ptr, ptr, ptr, ptr, ptr, ptr }

; Function Attrs: inlinehint nounwind uwtable
define internal i32 @dt_pthread_mutex_unlock(ptr noundef %0) #4 {
  %2 = alloca ptr, align 8
  store ptr %0, ptr %2, align 8, !tbaa !91
  %3 = load ptr, ptr %2, align 8, !tbaa !91
  %4 = getelementptr inbounds nuw %struct.dt_pthread_mutex_t, ptr %3, i32 0, i32 0
  %5 = call i32 @pthread_mutex_unlock(ptr noundef %4) #10
  ret i32 %5
}

; Function Attrs: inlinehint nounwind uwtable
define internal i32 @dt_pthread_mutex_lock(ptr noundef %0) #4 {
  %2 = alloca ptr, align 8
  store ptr %0, ptr %2, align 8, !tbaa !91
  %3 = load ptr, ptr %2, align 8, !tbaa !91
  %4 = getelementptr inbounds nuw %struct.dt_pthread_mutex_t, ptr %3, i32 0, i32 0
  %5 = call i32 @pthread_mutex_lock(ptr noundef %4) #10
  ret i32 %5
}

; Function Attrs: nounwind uwtable
define internal void @_dispatch_camera_property_value_changed(ptr noundef %0, ptr noundef %1, ptr noundef %2, ptr noundef %3) #0 {
  %5 = alloca ptr, align 8
  %6 = alloca ptr, align 8
  %7 = alloca ptr, align 8
  %8 = alloca ptr, align 8
  %9 = alloca ptr, align 8
  %10 = alloca ptr, align 8
  %11 = alloca ptr, align 8
  store ptr %0, ptr %5, align 8, !tbaa !6
  store ptr %1, ptr %6, align 8, !tbaa !21
  store ptr %2, ptr %7, align 8, !tbaa !63
  store ptr %3, ptr %8, align 8, !tbaa !63
  call void @llvm.lifetime.start.p0(i64 8, ptr %9) #10
  %12 = load ptr, ptr %5, align 8, !tbaa !6
  store ptr %12, ptr %9, align 8, !tbaa !6
  %13 = load ptr, ptr %9, align 8, !tbaa !6
  %14 = getelementptr inbounds nuw %struct.dt_camctl_t, ptr %13, i32 0, i32 1
  %15 = call i32 @dt_pthread_mutex_lock(ptr noundef %14)
  call void @llvm.lifetime.start.p0(i64 8, ptr %10) #10
  %16 = load ptr, ptr %9, align 8, !tbaa !6
  %17 = getelementptr inbounds nuw %struct.dt_camctl_t, ptr %16, i32 0, i32 3
  %18 = load ptr, ptr %17, align 8, !tbaa !106
  store ptr %18, ptr %10, align 8, !tbaa !85
  br label %19

19:                                               ; preds = %50, %4
  %20 = load ptr, ptr %10, align 8, !tbaa !85
  %21 = icmp ne ptr %20, null
  br i1 %21, label %23, label %22

22:                                               ; preds = %19
  call void @llvm.lifetime.end.p0(i64 8, ptr %10) #10
  br label %52

23:                                               ; preds = %19
  call void @llvm.lifetime.start.p0(i64 8, ptr %11) #10
  %24 = load ptr, ptr %10, align 8, !tbaa !85
  %25 = getelementptr inbounds nuw %struct._GList, ptr %24, i32 0, i32 0
  %26 = load ptr, ptr %25, align 8, !tbaa !86
  store ptr %26, ptr %11, align 8, !tbaa !104
  %27 = load ptr, ptr %11, align 8, !tbaa !104
  %28 = getelementptr inbounds nuw %struct.dt_camctl_listener_t, ptr %27, i32 0, i32 6
  %29 = load ptr, ptr %28, align 8, !tbaa !245
  %30 = icmp ne ptr %29, null
  br i1 %30, label %31, label %41

31:                                               ; preds = %23
  %32 = load ptr, ptr %11, align 8, !tbaa !104
  %33 = getelementptr inbounds nuw %struct.dt_camctl_listener_t, ptr %32, i32 0, i32 6
  %34 = load ptr, ptr %33, align 8, !tbaa !245
  %35 = load ptr, ptr %6, align 8, !tbaa !21
  %36 = load ptr, ptr %7, align 8, !tbaa !63
  %37 = load ptr, ptr %8, align 8, !tbaa !63
  %38 = load ptr, ptr %11, align 8, !tbaa !104
  %39 = getelementptr inbounds nuw %struct.dt_camctl_listener_t, ptr %38, i32 0, i32 0
  %40 = load ptr, ptr %39, align 8, !tbaa !128
  call void %34(ptr noundef %35, ptr noundef %36, ptr noundef %37, ptr noundef %40)
  br label %41

41:                                               ; preds = %31, %23
  call void @llvm.lifetime.end.p0(i64 8, ptr %11) #10
  br label %42

42:                                               ; preds = %41
  %43 = load ptr, ptr %10, align 8, !tbaa !85
  %44 = icmp ne ptr %43, null
  br i1 %44, label %45, label %49

45:                                               ; preds = %42
  %46 = load ptr, ptr %10, align 8, !tbaa !85
  %47 = getelementptr inbounds nuw %struct._GList, ptr %46, i32 0, i32 1
  %48 = load ptr, ptr %47, align 8, !tbaa !117
  br label %50

49:                                               ; preds = %42
  br label %50

50:                                               ; preds = %49, %45
  %51 = phi ptr [ %48, %45 ], [ null, %49 ]
  store ptr %51, ptr %10, align 8, !tbaa !85
  br label %19

52:                                               ; preds = %22
  %53 = load ptr, ptr %9, align 8, !tbaa !6
  %54 = getelementptr inbounds nuw %struct.dt_camctl_t, ptr %53, i32 0, i32 1
  %55 = call i32 @dt_pthread_mutex_unlock(ptr noundef %54)
  call void @llvm.lifetime.end.p0(i64 8, ptr %9) #10
  ret void
}