; Function Attrs: nounwind uwtable
define internal fastcc void @_dispatch_camera_property_value_changed(ptr noundef %0, ptr noundef %1, ptr noundef %2, ptr noundef %3) unnamed_addr #0 {
  %5 = getelementptr inbounds nuw i8, ptr %0, i64 40
  %6 = tail call i32 @pthread_mutex_lock(ptr noundef nonnull %5) #15
  %7 = getelementptr inbounds nuw i8, ptr %0, i64 88
  %.016 = load ptr, ptr %7, align 8, !tbaa !83
  %.not17 = icmp eq ptr %.016, null
  br i1 %.not17, label %._crit_edge, label %.lr.ph

._crit_edge:                                      ; preds = %14, %4
  %8 = tail call i32 @pthread_mutex_unlock(ptr noundef nonnull %5) #15
  ret void

.lr.ph:                                           ; preds = %4, %14
  %.018 = phi ptr [ %.0, %14 ], [ %.016, %4 ]
  %9 = load ptr, ptr %.018, align 8, !tbaa !78
  %10 = getelementptr inbounds nuw i8, ptr %9, i64 48
  %11 = load ptr, ptr %10, align 8, !tbaa !208
  %.not15 = icmp eq ptr %11, null
  br i1 %.not15, label %14, label %12

12:                                               ; preds = %.lr.ph
  %13 = load ptr, ptr %9, align 8, !tbaa !86
  tail call void %11(ptr noundef %1, ptr noundef %2, ptr noundef %3, ptr noundef %13) #15
  br label %14

14:                                               ; preds = %12, %.lr.ph
  %15 = getelementptr inbounds nuw i8, ptr %.018, i64 8
  %.0 = load ptr, ptr %15, align 8, !tbaa !83
  %.not = icmp eq ptr %.0, null
  br i1 %.not, label %._crit_edge, label %.lr.ph
}